; Function Attrs: mustprogress uwtable
define void @_ZN6icu_7713DecimalFormat21applyLocalizedPatternERKNS_13UnicodeStringER10UErrorCode(ptr noundef nonnull align 8 dereferenceable(72) %0, ptr noundef nonnull align 8 dereferenceable(64) %1, ptr noundef nonnull align 4 dereferenceable(4) %2) unnamed_addr #1 align 2 personality ptr @__gxx_personality_v0 {
  %4 = alloca %"class.icu_77::UnicodeString", align 8
  %5 = load i32, ptr %2, align 4, !tbaa !13
  %6 = icmp slt i32 %5, 1
  br i1 %6, label %7, label %21

7:                                                ; preds = %3
  %8 = getelementptr inbounds nuw i8, ptr %0, i64 64
  %9 = load ptr, ptr %8, align 8, !tbaa !25
  %10 = icmp eq ptr %9, null
  br i1 %10, label %11, label %12

11:                                               ; preds = %7
  store i32 7, ptr %2, align 4, !tbaa !13
  br label %21

12:                                               ; preds = %7
  call void @llvm.lifetime.start.p0(i64 64, ptr nonnull %4) #19
  %13 = load ptr, ptr %0, align 8, !tbaa !18
  %14 = getelementptr inbounds nuw i8, ptr %13, i64 312
  %15 = load ptr, ptr %14, align 8
  %16 = tail call noundef ptr %15(ptr noundef nonnull align 8 dereferenceable(72) %0)
  call void @_ZN6icu_776number4impl18PatternStringUtils16convertLocalizedERKNS_13UnicodeStringERKNS_20DecimalFormatSymbolsEbR10UErrorCode(ptr dead_on_unwind nonnull writable sret(%"class.icu_77::UnicodeString") align 8 %4, ptr noundef nonnull align 8 dereferenceable(64) %1, ptr noundef nonnull align 8 dereferenceable(2579) %16, i1 noundef zeroext false, ptr noundef nonnull align 4 dereferenceable(4) %2)
  %17 = load ptr, ptr %0, align 8, !tbaa !18
  %18 = getelementptr inbounds nuw i8, ptr %17, i64 568
  %19 = load ptr, ptr %18, align 8
  invoke void %19(ptr noundef nonnull align 8 dereferenceable(72) %0, ptr noundef nonnull align 8 dereferenceable(64) %4, ptr noundef nonnull align 4 dereferenceable(4) %2)
          to label %20 unwind label %22

20:                                               ; preds = %12
  call void @_ZN6icu_7713UnicodeStringD1Ev(ptr noundef nonnull align 8 dereferenceable(64) %4) #19
  call void @llvm.lifetime.end.p0(i64 64, ptr nonnull %4) #19
  br label %21

21:                                               ; preds = %3, %20, %11
  ret void

22:                                               ; preds = %12
  %23 = landingpad { ptr, i32 }
          cleanup
  call void @_ZN6icu_7713UnicodeStringD1Ev(ptr noundef nonnull align 8 dereferenceable(64) %4) #19
  call void @llvm.lifetime.end.p0(i64 64, ptr nonnull %4) #19
  resume { ptr, i32 } %23
}